(dp1
S'OriginalConfig'
p2
ccopy_reg
_reconstructor
p3
(cWMCore.Configuration
Configuration
p4
c__builtin__
object
p5
NtRp6
(dp7
S'Site'
p8
g3
(cWMCore.Configuration
ConfigSection
p9
g5
NtRp10
(dp11
S'_internal_skipChecks'
p12
I00
sS'_internal_documentation'
p13
S''
sS'_internal_settings'
p14
c__builtin__
set
p15
((lp16
S'storageSite'
p17
atRp18
sS'_internal_name'
p19
g8
sS'_internal_docstrings'
p20
(dp21
sS'_internal_children'
p22
g15
((ltRp23
sg17
S'T3_US_Brown'
p24
sS'_internal_parent_ref'
p25
NsbsS'_internal_sections'
p26
(lp27
S'General'
p28
aS'JobType'
p29
aS'Data'
p30
ag8
aS'User'
p31
aS'Debug'
p32
asg28
g3
(g9
g5
NtRp33
(dp34
S'transferLogs'
p35
I01
sg12
I00
sg13
S''
sg14
g15
((lp36
g35
aS'transferOutputs'
p37
aS'workArea'
p38
aS'requestName'
p39
atRp40
sg19
g28
sg20
(dp41
sg37
I01
sg22
g15
((ltRp42
sg39
S'Wgamma94XSinglePhoton_Aug14_2017B'
p43
sg25
Nsg38
S'crab_jobs_2017B_photonAug14'
p44
sbsS'_internal_webapps'
p45
(lp46
sg31
g3
(g9
g5
NtRp47
(dp48
g12
I00
sg13
S''
sg14
g15
((ltRp49
sg19
g31
sg20
(dp50
sg22
g15
((ltRp51
sg25
NsbsS'_internal_components'
p52
(lp53
sg32
g3
(g9
g5
NtRp54
(dp55
g12
I00
sg13
S''
sg14
g15
((ltRp56
sg19
g32
sg20
(dp57
sg22
g15
((ltRp58
sg25
Nsbsg30
g3
(g9
g5
NtRp59
(dp60
S'inputDataset'
p61
S'/SinglePhoton/Run2017B-31Mar2018-v1/MINIAOD'
p62
sS'outputDatasetTag'
p63
S'Wgamma94XSinglePhoton_Aug14_2017B'
p64
sg12
I00
sS'splitting'
p65
S'FileBased'
p66
sS'unitsPerJob'
p67
I5
sg13
S''
sg14
g15
((lp68
g61
ag63
aS'publication'
p69
ag67
ag65
aS'inputDBS'
p70
aS'lumiMask'
p71
aS'outLFNDirBase'
p72
atRp73
sg19
g30
sg70
S'global'
p74
sg20
(dp75
sg22
g15
((ltRp76
sg72
S'/store/user/xuyan/'
p77
sg25
Nsg71
S'JSON/Cert_294927-306462_13TeV_EOY2017ReReco_Collisions17_JSONv1.txt'
p78
sg69
I00
sbsg29
g3
(g9
g5
NtRp79
(dp80
g12
I00
sg13
S''
sg14
g15
((lp81
S'psetName'
p82
aS'pluginName'
p83
aS'inputFiles'
p84
aS'sendExternalFolder'
p85
atRp86
sg19
g29
sg20
(dp87
sg83
S'Analysis'
p88
sg22
g15
((ltRp89
sg82
S'config_generic.py'
p90
sg25
Nsg84
(lp91
g78
asg85
I01
sbsbsS'voGroup'
p92
S''
sS'Server'
p93
S'cmsweb.cern.ch'
p94
sS'instance'
p95
S'prod'
p96
sS'RequestName'
p97
V190814_095008:xuyan_crab_Wgamma94XSinglePhoton_Aug14_2017B
p98
sS'voRole'
p99
S'NULL'
p100
sS'Port'
p101
S''
s.